((lp0
(dp1
S'javac_switches'
p2
(dp3
S'd'
p4
S'/home/opprop/units-inference/benchmarks/paper-annotation/jReactPhysics3D/target/classes'
p5
sS'g'
p6
I01
sS'encoding'
p7
S'UTF-8'
p8
sS'sourcepath'
p9
S'/home/opprop/units-inference/benchmarks/paper-annotation/jReactPhysics3D/src/main/java:'
p10
sS'classpath'
p11
S'/home/opprop/units-inference/benchmarks/paper-annotation/jReactPhysics3D/target/classes:'
p12
sS'source'
p13
S'1.8'
p14
sS's'
p15
S'/home/opprop/units-inference/benchmarks/paper-annotation/jReactPhysics3D/target/generated-sources/annotations'
p16
sS'nowarn'
p17
I01
sS'target'
p18
S'1.8'
p19
ssS'java_files'
p20
(lp21
S'/home/opprop/units-inference/benchmarks/paper-annotation/jReactPhysics3D/src/main/java/net/smert/jreactphysics3d/engine/EventListener.java'
p22
aS'/home/opprop/units-inference/benchmarks/paper-annotation/jReactPhysics3D/src/main/java/net/smert/jreactphysics3d/mathematics/Matrix2x2.java'
p23
aS'/home/opprop/units-inference/benchmarks/paper-annotation/jReactPhysics3D/src/main/java/net/smert/jreactphysics3d/constraint/FixedJoint.java'
p24
aS'/home/opprop/units-inference/benchmarks/paper-annotation/jReactPhysics3D/src/main/java/net/smert/jreactphysics3d/engine/ProfileNode.java'
p25
aS'/home/opprop/units-inference/benchmarks/paper-annotation/jReactPhysics3D/src/main/java/net/smert/jreactphysics3d/constraint/HingeJoint.java'
p26
aS'/home/opprop/units-inference/benchmarks/paper-annotation/jReactPhysics3D/src/main/java/net/smert/jreactphysics3d/engine/ProfileNodeIterator.java'
p27
aS'/home/opprop/units-inference/benchmarks/paper-annotation/jReactPhysics3D/src/main/java/net/smert/jreactphysics3d/engine/ContactManifoldSolver.java'
p28
aS'/home/opprop/units-inference/benchmarks/paper-annotation/jReactPhysics3D/src/main/java/net/smert/jreactphysics3d/collision/narrowphase/NarrowPhaseAlgorithm.java'
p29
aS'/home/opprop/units-inference/benchmarks/paper-annotation/jReactPhysics3D/src/main/java/net/smert/jreactphysics3d/mathematics/Vector2.java'
p30
aS'/home/opprop/units-inference/benchmarks/paper-annotation/jReactPhysics3D/src/main/java/net/smert/jreactphysics3d/collision/narrowphase/EPA/Utils.java'
p31
aS'/home/opprop/units-inference/benchmarks/paper-annotation/jReactPhysics3D/src/main/java/net/smert/jreactphysics3d/engine/Island.java'
p32
aS'/home/opprop/units-inference/benchmarks/paper-annotation/jReactPhysics3D/src/main/java/net/smert/jreactphysics3d/configuration/ContactsPositionCorrectionTechnique.java'
p33
aS'/home/opprop/units-inference/benchmarks/paper-annotation/jReactPhysics3D/src/main/java/net/smert/jreactphysics3d/constraint/FixedJointInfo.java'
p34
aS'/home/opprop/units-inference/benchmarks/paper-annotation/jReactPhysics3D/src/main/java/net/smert/jreactphysics3d/collision/narrowphase/EPA/TrianglesStore.java'
p35
aS'/home/opprop/units-inference/benchmarks/paper-annotation/jReactPhysics3D/src/main/java/net/smert/jreactphysics3d/engine/Profiler.java'
p36
aS'/home/opprop/units-inference/benchmarks/paper-annotation/jReactPhysics3D/src/main/java/net/smert/jreactphysics3d/mathematics/Vector3.java'
p37
aS'/home/opprop/units-inference/benchmarks/paper-annotation/jReactPhysics3D/src/main/java/net/smert/jreactphysics3d/collision/shapes/AABB.java'
p38
aS'/home/opprop/units-inference/benchmarks/paper-annotation/jReactPhysics3D/src/main/java/net/smert/jreactphysics3d/body/RigidBody.java'
p39
aS'/home/opprop/units-inference/benchmarks/paper-annotation/jReactPhysics3D/src/main/java/net/smert/jreactphysics3d/collision/shapes/BoxShape.java'
p40
aS'/home/opprop/units-inference/benchmarks/paper-annotation/jReactPhysics3D/src/main/java/net/smert/jreactphysics3d/collision/shapes/SphereShape.java'
p41
aS'/home/opprop/units-inference/benchmarks/paper-annotation/jReactPhysics3D/src/main/java/net/smert/jreactphysics3d/collision/broadphase/BodyPair.java'
p42
aS'/home/opprop/units-inference/benchmarks/paper-annotation/jReactPhysics3D/src/main/java/net/smert/jreactphysics3d/collision/broadphase/Utils.java'
p43
aS'/home/opprop/units-inference/benchmarks/paper-annotation/jReactPhysics3D/src/main/java/net/smert/jreactphysics3d/configuration/JointsPositionCorrectionTechnique.java'
p44
aS'/home/opprop/units-inference/benchmarks/paper-annotation/jReactPhysics3D/src/main/java/net/smert/jreactphysics3d/collision/broadphase/EndPoint.java'
p45
aS'/home/opprop/units-inference/benchmarks/paper-annotation/jReactPhysics3D/src/main/java/net/smert/jreactphysics3d/collision/narrowphase/GJK/Simplex.java'
p46
aS'/home/opprop/units-inference/benchmarks/paper-annotation/jReactPhysics3D/src/main/java/net/smert/jreactphysics3d/collision/BodyIndexPair.java'
p47
aS'/home/opprop/units-inference/benchmarks/paper-annotation/jReactPhysics3D/src/main/java/net/smert/jreactphysics3d/engine/ContactManifoldListElement.java'
p48
aS'/home/opprop/units-inference/benchmarks/paper-annotation/jReactPhysics3D/src/main/java/net/smert/jreactphysics3d/engine/ContactSolver.java'
p49
aS'/home/opprop/units-inference/benchmarks/paper-annotation/jReactPhysics3D/src/main/java/net/smert/jreactphysics3d/collision/broadphase/SweepAndPruneAlgorithm.java'
p50
aS'/home/opprop/units-inference/benchmarks/paper-annotation/jReactPhysics3D/src/main/java/net/smert/jreactphysics3d/constraint/Joint.java'
p51
aS'/home/opprop/units-inference/benchmarks/paper-annotation/jReactPhysics3D/src/main/java/net/smert/jreactphysics3d/collision/narrowphase/EPA/TriangleComparison.java'
p52
aS'/home/opprop/units-inference/benchmarks/paper-annotation/jReactPhysics3D/src/main/java/net/smert/jreactphysics3d/collision/narrowphase/EPA/EPAAlgorithm.java'
p53
aS'/home/opprop/units-inference/benchmarks/paper-annotation/jReactPhysics3D/src/main/java/net/smert/jreactphysics3d/configuration/Defaults.java'
p54
aS'/home/opprop/units-inference/benchmarks/paper-annotation/jReactPhysics3D/src/main/java/net/smert/jreactphysics3d/collision/narrowphase/EPA/EdgeEPA.java'
p55
aS'/home/opprop/units-inference/benchmarks/paper-annotation/jReactPhysics3D/src/main/java/net/smert/jreactphysics3d/mathematics/Mathematics.java'
p56
aS'/home/opprop/units-inference/benchmarks/paper-annotation/jReactPhysics3D/src/main/java/net/smert/jreactphysics3d/engine/DynamicsWorld.java'
p57
aS'/home/opprop/units-inference/benchmarks/paper-annotation/jReactPhysics3D/src/main/java/net/smert/jreactphysics3d/collision/shapes/CylinderShape.java'
p58
aS'/home/opprop/units-inference/benchmarks/paper-annotation/jReactPhysics3D/src/main/java/net/smert/jreactphysics3d/constraint/BallAndSocketJointInfo.java'
p59
aS'/home/opprop/units-inference/benchmarks/paper-annotation/jReactPhysics3D/src/main/java/net/smert/jreactphysics3d/collision/broadphase/PairManager.java'
p60
aS'/home/opprop/units-inference/benchmarks/paper-annotation/jReactPhysics3D/src/main/java/net/smert/jreactphysics3d/constraint/HingeJointInfo.java'
p61
aS'/home/opprop/units-inference/benchmarks/paper-annotation/jReactPhysics3D/src/main/java/net/smert/jreactphysics3d/collision/narrowphase/EPA/TriangleEPA.java'
p62
aS'/home/opprop/units-inference/benchmarks/paper-annotation/jReactPhysics3D/src/main/java/net/smert/jreactphysics3d/mathematics/Quaternion.java'
p63
aS'/home/opprop/units-inference/benchmarks/paper-annotation/jReactPhysics3D/src/main/java/net/smert/jreactphysics3d/engine/Timer.java'
p64
aS'/home/opprop/units-inference/benchmarks/paper-annotation/jReactPhysics3D/src/main/java/net/smert/jreactphysics3d/constraint/SliderJoint.java'
p65
aS'/home/opprop/units-inference/benchmarks/paper-annotation/jReactPhysics3D/src/main/java/net/smert/jreactphysics3d/body/Body.java'
p66
aS'/home/opprop/units-inference/benchmarks/paper-annotation/jReactPhysics3D/src/main/java/net/smert/jreactphysics3d/collision/broadphase/BroadPhaseAlgorithm.java'
p67
aS'/home/opprop/units-inference/benchmarks/paper-annotation/jReactPhysics3D/src/main/java/net/smert/jreactphysics3d/mathematics/Transform.java'
p68
aS'/home/opprop/units-inference/benchmarks/paper-annotation/jReactPhysics3D/src/main/java/net/smert/jreactphysics3d/collision/shapes/ConeShape.java'
p69
aS'/home/opprop/units-inference/benchmarks/paper-annotation/jReactPhysics3D/src/main/java/net/smert/jreactphysics3d/engine/ConstraintSolver.java'
p70
aS'/home/opprop/units-inference/benchmarks/paper-annotation/jReactPhysics3D/src/main/java/net/smert/jreactphysics3d/constraint/SliderJointInfo.java'
p71
aS'/home/opprop/units-inference/benchmarks/paper-annotation/jReactPhysics3D/src/main/java/net/smert/jreactphysics3d/mathematics/Matrix3x3.java'
p72
aS'/home/opprop/units-inference/benchmarks/paper-annotation/jReactPhysics3D/src/main/java/net/smert/jreactphysics3d/collision/shapes/CollisionShapeType.java'
p73
aS'/home/opprop/units-inference/benchmarks/paper-annotation/jReactPhysics3D/src/main/java/net/smert/jreactphysics3d/collision/BroadPhasePair.java'
p74
aS'/home/opprop/units-inference/benchmarks/paper-annotation/jReactPhysics3D/src/main/java/net/smert/jreactphysics3d/engine/ProfileSample.java'
p75
aS'/home/opprop/units-inference/benchmarks/paper-annotation/jReactPhysics3D/src/main/java/net/smert/jreactphysics3d/constraint/ContactPointInfo.java'
p76
aS'/home/opprop/units-inference/benchmarks/paper-annotation/jReactPhysics3D/src/main/java/net/smert/jreactphysics3d/ReactPhysics3D.java'
p77
aS'/home/opprop/units-inference/benchmarks/paper-annotation/jReactPhysics3D/src/main/java/net/smert/jreactphysics3d/constraint/JointListElement.java'
p78
aS'/home/opprop/units-inference/benchmarks/paper-annotation/jReactPhysics3D/src/main/java/net/smert/jreactphysics3d/engine/Impulse.java'
p79
aS'/home/opprop/units-inference/benchmarks/paper-annotation/jReactPhysics3D/src/main/java/net/smert/jreactphysics3d/collision/broadphase/NoBroadPhaseAlgorithm.java'
p80
aS'/home/opprop/units-inference/benchmarks/paper-annotation/jReactPhysics3D/src/main/java/net/smert/jreactphysics3d/collision/narrowphase/GJK/GJKAlgorithm.java'
p81
aS'/home/opprop/units-inference/benchmarks/paper-annotation/jReactPhysics3D/src/main/java/net/smert/jreactphysics3d/engine/ContactPointSolver.java'
p82
aS'/home/opprop/units-inference/benchmarks/paper-annotation/jReactPhysics3D/src/main/java/net/smert/jreactphysics3d/constraint/ContactPoint.java'
p83
aS'/home/opprop/units-inference/benchmarks/paper-annotation/jReactPhysics3D/src/main/java/net/smert/jreactphysics3d/engine/CollisionWorld.java'
p84
aS'/home/opprop/units-inference/benchmarks/paper-annotation/jReactPhysics3D/src/main/java/net/smert/jreactphysics3d/collision/shapes/CollisionShape.java'
p85
aS'/home/opprop/units-inference/benchmarks/paper-annotation/jReactPhysics3D/src/main/java/net/smert/jreactphysics3d/collision/broadphase/AABBInt.java'
p86
aS'/home/opprop/units-inference/benchmarks/paper-annotation/jReactPhysics3D/src/main/java/net/smert/jreactphysics3d/collision/shapes/CapsuleShape.java'
p87
aS'/home/opprop/units-inference/benchmarks/paper-annotation/jReactPhysics3D/src/main/java/net/smert/jreactphysics3d/constraint/BallAndSocketJoint.java'
p88
aS'/home/opprop/units-inference/benchmarks/paper-annotation/jReactPhysics3D/src/main/java/net/smert/jreactphysics3d/body/CollisionBody.java'
p89
aS'/home/opprop/units-inference/benchmarks/paper-annotation/jReactPhysics3D/src/main/java/net/smert/jreactphysics3d/engine/ConstraintSolverData.java'
p90
aS'/home/opprop/units-inference/benchmarks/paper-annotation/jReactPhysics3D/src/main/java/net/smert/jreactphysics3d/engine/Material.java'
p91
aS'/home/opprop/units-inference/benchmarks/paper-annotation/jReactPhysics3D/src/main/java/net/smert/jreactphysics3d/engine/ContactManifold.java'
p92
aS'/home/opprop/units-inference/benchmarks/paper-annotation/jReactPhysics3D/src/main/java/net/smert/jreactphysics3d/collision/shapes/ConvexMeshShape.java'
p93
aS'/home/opprop/units-inference/benchmarks/paper-annotation/jReactPhysics3D/src/main/java/net/smert/jreactphysics3d/collision/CollisionDetection.java'
p94
aS'/home/opprop/units-inference/benchmarks/paper-annotation/jReactPhysics3D/src/main/java/net/smert/jreactphysics3d/engine/OverlappingPair.java'
p95
aS'/home/opprop/units-inference/benchmarks/paper-annotation/jReactPhysics3D/src/main/java/net/smert/jreactphysics3d/constraint/JointType.java'
p96
aS'/home/opprop/units-inference/benchmarks/paper-annotation/jReactPhysics3D/src/main/java/net/smert/jreactphysics3d/constraint/JointInfo.java'
p97
aS'/home/opprop/units-inference/benchmarks/paper-annotation/jReactPhysics3D/src/main/java/net/smert/jreactphysics3d/collision/broadphase/BoxAABB.java'
p98
aS'/home/opprop/units-inference/benchmarks/paper-annotation/jReactPhysics3D/src/main/java/net/smert/jreactphysics3d/collision/narrowphase/SphereVsSphereAlgorithm.java'
p99
asa(lp100
(dp101
S'built_jars'
p102
I0
sS'executable_jars'
p103
I0
sS'javac_invocations'
p104
I1
sS'build_time'
p105
F13.289944887161255
sS'source_files'
p106
I78
sS'class_files'
p107
I78
stp108
.